target datalayout = "e-m:e-p270:32:32-p271:32:32-p272:64:64-i64:64-i128:128-f80:128-n8:16:32:64-S128"
target triple = "x86_64-pc-linux-gnu"

%struct._packet_info = type { ptr, ptr, i32, i32, %struct.nstime_t, %struct.nstime_t, %struct.nstime_t, i8, ptr, ptr, ptr, ptr, %struct._address, %struct._address, %struct._address, %struct._address, %struct._address, %struct._address, i32, ptr, i8, [3 x i8], %struct.anon, i32, i32, i32, i32, ptr, i8, ptr, ptr, i16, i16, i32, i32, i16, i32, i32, ptr, ptr, ptr, i8, i8, i16, i16, i16, i32, i16, i16, ptr, ptr, ptr, ptr, ptr, i32, i32 }
%struct.nstime_t = type { i64, i32 }
%struct._address = type { i32, i32, ptr, ptr }
%struct.anon = type { i8, [3 x i8] }
%struct.s1ap_private_data = type { ptr, i32, i32, i32, i32, i32, i8, ptr, ptr, ptr, i16, i8, i8, i32 }
%struct._s1ap_ctx_t = type { i32, i32, i32, i32 }

@proto_s1ap = internal global i32 0, align 4
@s1ap_ies_dissector_table = internal global ptr null, align 8

; Function Attrs: null_pointer_is_valid sspstrong uwtable
define internal ptr @s1ap_get_private_data(ptr noundef %0) #0 {
  %2 = alloca ptr, align 8
  %3 = alloca ptr, align 8
  store ptr %0, ptr %2, align 8
  call void @llvm.lifetime.start.p0(i64 8, ptr %3) #8
  %4 = load ptr, ptr %2, align 8
  %5 = getelementptr inbounds nuw %struct._packet_info, ptr %4, i32 0, i32 51
  %6 = load ptr, ptr %5, align 8
  %7 = load ptr, ptr %2, align 8
  %8 = load i32, ptr @proto_s1ap, align 4
  %9 = call ptr @p_get_proto_data(ptr noundef %6, ptr noundef %7, i32 noundef %8, i32 noundef 0)
  store ptr %9, ptr %3, align 8
  %10 = load ptr, ptr %3, align 8
  %11 = icmp ne ptr %10, null
  br i1 %11, label %23, label %12

12:                                               ; preds = %1
  %13 = load ptr, ptr %2, align 8
  %14 = getelementptr inbounds nuw %struct._packet_info, ptr %13, i32 0, i32 51
  %15 = load ptr, ptr %14, align 8
  %16 = call noalias ptr @wmem_alloc0(ptr noundef %15, i64 noundef 64) #11
  store ptr %16, ptr %3, align 8
  %17 = load ptr, ptr %2, align 8
  %18 = getelementptr inbounds nuw %struct._packet_info, ptr %17, i32 0, i32 51
  %19 = load ptr, ptr %18, align 8
  %20 = load ptr, ptr %2, align 8
  %21 = load i32, ptr @proto_s1ap, align 4
  %22 = load ptr, ptr %3, align 8
  call void @p_add_proto_data(ptr noundef %19, ptr noundef %20, i32 noundef %21, i32 noundef 0, ptr noundef %22)
  br label %23

23:                                               ; preds = %12, %1
  %24 = load ptr, ptr %3, align 8
  call void @llvm.lifetime.end.p0(i64 8, ptr %3) #8
  ret ptr %24
}

; Function Attrs: null_pointer_is_valid sspstrong uwtable
define internal i32 @dissect_ProtocolIEFieldValue(ptr noundef %0, ptr noundef %1, ptr noundef %2, ptr noundef %3) #0 {
  %5 = alloca ptr, align 8
  %6 = alloca ptr, align 8
  %7 = alloca ptr, align 8
  %8 = alloca ptr, align 8
  %9 = alloca %struct._s1ap_ctx_t, align 4
  %10 = alloca ptr, align 8
  store ptr %0, ptr %5, align 8
  store ptr %1, ptr %6, align 8
  store ptr %2, ptr %7, align 8
  store ptr %3, ptr %8, align 8
  call void @llvm.lifetime.start.p0(i64 16, ptr %9) #8
  call void @llvm.lifetime.start.p0(i64 8, ptr %10) #8
  %11 = load ptr, ptr %6, align 8
  %12 = call ptr @s1ap_get_private_data(ptr noundef %11)
  store ptr %12, ptr %10, align 8
  %13 = load ptr, ptr %10, align 8
  %14 = getelementptr inbounds nuw %struct.s1ap_private_data, ptr %13, i32 0, i32 5
  %15 = load i32, ptr %14, align 8
  %16 = getelementptr inbounds nuw %struct._s1ap_ctx_t, ptr %9, i32 0, i32 0
  store i32 %15, ptr %16, align 4
  %17 = load ptr, ptr %10, align 8
  %18 = getelementptr inbounds nuw %struct.s1ap_private_data, ptr %17, i32 0, i32 1
  %19 = load i32, ptr %18, align 8
  %20 = getelementptr inbounds nuw %struct._s1ap_ctx_t, ptr %9, i32 0, i32 1
  store i32 %19, ptr %20, align 4
  %21 = load ptr, ptr %10, align 8
  %22 = getelementptr inbounds nuw %struct.s1ap_private_data, ptr %21, i32 0, i32 2
  %23 = load i32, ptr %22, align 4
  %24 = getelementptr inbounds nuw %struct._s1ap_ctx_t, ptr %9, i32 0, i32 2
  store i32 %23, ptr %24, align 4
  %25 = load ptr, ptr %10, align 8
  %26 = getelementptr inbounds nuw %struct.s1ap_private_data, ptr %25, i32 0, i32 3
  %27 = load i32, ptr %26, align 8
  %28 = getelementptr inbounds nuw %struct._s1ap_ctx_t, ptr %9, i32 0, i32 3
  store i32 %27, ptr %28, align 4
  %29 = load ptr, ptr @s1ap_ies_dissector_table, align 8
  %30 = load ptr, ptr %10, align 8
  %31 = getelementptr inbounds nuw %struct.s1ap_private_data, ptr %30, i32 0, i32 2
  %32 = load i32, ptr %31, align 4
  %33 = load ptr, ptr %5, align 8
  %34 = load ptr, ptr %6, align 8
  %35 = load ptr, ptr %7, align 8
  %36 = call i32 @dissector_try_uint_with_data(ptr noundef %29, i32 noundef %32, ptr noundef %33, ptr noundef %34, ptr noundef %35, i1 noundef zeroext false, ptr noundef %9)
  %37 = icmp ne i32 %36, 0
  br i1 %37, label %38, label %41

38:                                               ; preds = %4
  %39 = load ptr, ptr %5, align 8
  %40 = call i32 @tvb_captured_length(ptr noundef %39)
  br label %42

41:                                               ; preds = %4
  br label %42

42:                                               ; preds = %41, %38
  %43 = phi i32 [ %40, %38 ], [ 0, %41 ]
  call void @llvm.lifetime.end.p0(i64 8, ptr %10) #8
  call void @llvm.lifetime.end.p0(i64 16, ptr %9) #8
  ret i32 %43
}