; Function Attrs: null_pointer_is_valid sspstrong uwtable
define internal i32 @dissect_ProtocolIEFieldValue(ptr noundef %0, ptr noundef %1, ptr noundef %2, ptr readnone captures(none) %3) #0 {
  %5 = alloca %struct._s1ap_ctx_t, align 4
  call void @llvm.lifetime.start.p0(i64 16, ptr nonnull %5) #8
  %6 = getelementptr inbounds nuw i8, ptr %1, i64 408
  %7 = load ptr, ptr %6, align 8
  %8 = load i32, ptr @proto_s1ap, align 4
  %9 = tail call ptr @p_get_proto_data(ptr noundef %7, ptr noundef %1, i32 noundef %8, i32 noundef 0)
  %.not.i = icmp eq ptr %9, null
  br i1 %.not.i, label %10, label %s1ap_get_private_data.exit

10:                                               ; preds = %4
  %11 = load ptr, ptr %6, align 8
  %12 = tail call noalias dereferenceable_or_null(64) ptr @wmem_alloc0(ptr noundef %11, i64 noundef 64) #9
  %13 = load ptr, ptr %6, align 8
  %14 = load i32, ptr @proto_s1ap, align 4
  tail call void @p_add_proto_data(ptr noundef %13, ptr noundef %1, i32 noundef %14, i32 noundef 0, ptr noundef %12)
  br label %s1ap_get_private_data.exit

s1ap_get_private_data.exit:                       ; preds = %4, %10
  %.0.i = phi ptr [ %9, %4 ], [ %12, %10 ]
  %15 = getelementptr inbounds nuw i8, ptr %.0.i, i64 24
  %16 = load i32, ptr %15, align 8
  store i32 %16, ptr %5, align 4
  %17 = getelementptr inbounds nuw i8, ptr %.0.i, i64 8
  %18 = load i32, ptr %17, align 8
  %19 = getelementptr inbounds nuw i8, ptr %5, i64 4
  store i32 %18, ptr %19, align 4
  %20 = getelementptr inbounds nuw i8, ptr %.0.i, i64 12
  %21 = load i32, ptr %20, align 4
  %22 = getelementptr inbounds nuw i8, ptr %5, i64 8
  store i32 %21, ptr %22, align 4
  %23 = getelementptr inbounds nuw i8, ptr %.0.i, i64 16
  %24 = load i32, ptr %23, align 8
  %25 = getelementptr inbounds nuw i8, ptr %5, i64 12
  store i32 %24, ptr %25, align 4
  %26 = load ptr, ptr @s1ap_ies_dissector_table, align 8
  %27 = call i32 @dissector_try_uint_with_data(ptr noundef %26, i32 noundef %21, ptr noundef %0, ptr noundef %1, ptr noundef %2, i1 noundef zeroext false, ptr noundef nonnull %5)
  %.not = icmp eq i32 %27, 0
  br i1 %.not, label %30, label %28

28:                                               ; preds = %s1ap_get_private_data.exit
  %29 = call i32 @tvb_captured_length(ptr noundef %0)
  br label %30

30:                                               ; preds = %s1ap_get_private_data.exit, %28
  %31 = phi i32 [ %29, %28 ], [ 0, %s1ap_get_private_data.exit ]
  call void @llvm.lifetime.end.p0(i64 16, ptr nonnull %5) #8
  ret i32 %31
}